(lp0
(S'stty'
p1
S'/bin/stty'
p2
tp3
a(S'build_dir'
p4
S'.build/atmega328'
p5
tp6
a(S'boards.txt'
p7
S'/Applications/Arduino.app/Contents/Resources/Java/hardware/arduino/boards.txt'
p8
tp9
a(S'avrdude'
p10
S'/Applications/Arduino.app/Contents/Resources/Java/hardware/tools/avr/bin/avrdude'
p11
tp12
a(S'avrdude.conf'
p13
S'/Applications/Arduino.app/Contents/Resources/Java/hardware/tools/avr/etc/avrdude.conf'
p14
tp15
a(S'board_models'
p16
cino.environment
BoardModels
p17
((lp18
(lp19
S'uno'
p20
a(dp21
S'build'
p22
(dp23
S'core'
p24
S'arduino'
p25
sS'mcu'
p26
S'atmega328p'
p27
sS'f_cpu'
p28
S'16000000L'
p29
sS'variant'
p30
S'standard'
p31
ssS'bootloader'
p32
(dp33
S'extended_fuses'
p34
S'0x05'
p35
sS'high_fuses'
p36
S'0xde'
p37
sS'low_fuses'
p38
S'0xff'
p39
sS'lock_bits'
p40
S'0x0F'
p41
sS'file'
p42
S'optiboot_atmega328.hex'
p43
sS'path'
p44
S'optiboot'
p45
sS'unlock_bits'
p46
S'0x3F'
p47
ssS'name'
p48
S'Arduino Uno'
p49
sS'upload'
p50
(dp51
S'speed'
p52
S'115200'
p53
sS'maximum_size'
p54
S'32256'
p55
sS'protocol'
p56
S'arduino'
p57
ssaa(lp58
S'atmega328'
p59
a(dp60
S'build'
p61
(dp62
S'core'
p63
S'arduino'
p64
sS'mcu'
p65
S'atmega328p'
p66
sS'f_cpu'
p67
S'16000000L'
p68
sS'variant'
p69
S'standard'
p70
ssS'bootloader'
p71
(dp72
S'extended_fuses'
p73
S'0x05'
p74
sS'high_fuses'
p75
S'0xDA'
p76
sS'low_fuses'
p77
S'0xFF'
p78
sS'lock_bits'
p79
S'0x0F'
p80
sS'file'
p81
S'ATmegaBOOT_168_atmega328.hex'
p82
sS'path'
p83
S'atmega'
p84
sS'unlock_bits'
p85
S'0x3F'
p86
ssS'name'
p87
S'Arduino Duemilanove w/ ATmega328'
p88
sS'upload'
p89
(dp90
S'speed'
p91
S'57600'
p92
sS'maximum_size'
p93
S'30720'
p94
sS'protocol'
p95
S'arduino'
p96
ssaa(lp97
S'diecimila'
p98
a(dp99
S'build'
p100
(dp101
S'core'
p102
S'arduino'
p103
sS'mcu'
p104
S'atmega168'
p105
sS'f_cpu'
p106
S'16000000L'
p107
sS'variant'
p108
S'standard'
p109
ssS'bootloader'
p110
(dp111
S'extended_fuses'
p112
S'0x00'
p113
sS'high_fuses'
p114
S'0xdd'
p115
sS'low_fuses'
p116
S'0xff'
p117
sS'lock_bits'
p118
S'0x0F'
p119
sS'file'
p120
S'ATmegaBOOT_168_diecimila.hex'
p121
sS'path'
p122
S'atmega'
p123
sS'unlock_bits'
p124
S'0x3F'
p125
ssS'name'
p126
S'Arduino Diecimila or Duemilanove w/ ATmega168'
p127
sS'upload'
p128
(dp129
S'speed'
p130
S'19200'
p131
sS'maximum_size'
p132
S'14336'
p133
sS'protocol'
p134
S'arduino'
p135
ssaa(lp136
S'nano328'
p137
a(dp138
S'build'
p139
(dp140
S'core'
p141
S'arduino'
p142
sS'mcu'
p143
S'atmega328p'
p144
sS'f_cpu'
p145
S'16000000L'
p146
sS'variant'
p147
S'eightanaloginputs'
p148
ssS'bootloader'
p149
(dp150
S'extended_fuses'
p151
S'0x05'
p152
sS'high_fuses'
p153
S'0xDA'
p154
sS'low_fuses'
p155
S'0xFF'
p156
sS'lock_bits'
p157
S'0x0F'
p158
sS'file'
p159
S'ATmegaBOOT_168_atmega328.hex'
p160
sS'path'
p161
S'atmega'
p162
sS'unlock_bits'
p163
S'0x3F'
p164
ssS'name'
p165
S'Arduino Nano w/ ATmega328'
p166
sS'upload'
p167
(dp168
S'speed'
p169
S'57600'
p170
sS'maximum_size'
p171
S'30720'
p172
sS'protocol'
p173
S'arduino'
p174
ssaa(lp175
S'nano'
p176
a(dp177
S'build'
p178
(dp179
S'core'
p180
S'arduino'
p181
sS'mcu'
p182
S'atmega168'
p183
sS'f_cpu'
p184
S'16000000L'
p185
sS'variant'
p186
S'eightanaloginputs'
p187
ssS'bootloader'
p188
(dp189
S'extended_fuses'
p190
S'0x00'
p191
sS'high_fuses'
p192
S'0xdd'
p193
sS'low_fuses'
p194
S'0xff'
p195
sS'lock_bits'
p196
S'0x0F'
p197
sS'file'
p198
S'ATmegaBOOT_168_diecimila.hex'
p199
sS'path'
p200
S'atmega'
p201
sS'unlock_bits'
p202
S'0x3F'
p203
ssS'name'
p204
S'Arduino Nano w/ ATmega168'
p205
sS'upload'
p206
(dp207
S'speed'
p208
S'19200'
p209
sS'maximum_size'
p210
S'14336'
p211
sS'protocol'
p212
S'arduino'
p213
ssaa(lp214
S'mega2560'
p215
a(dp216
S'build'
p217
(dp218
S'core'
p219
S'arduino'
p220
sS'mcu'
p221
S'atmega2560'
p222
sS'f_cpu'
p223
S'16000000L'
p224
sS'variant'
p225
S'mega'
p226
ssS'bootloader'
p227
(dp228
S'extended_fuses'
p229
S'0xFD'
p230
sS'high_fuses'
p231
S'0xD8'
p232
sS'low_fuses'
p233
S'0xFF'
p234
sS'lock_bits'
p235
S'0x0F'
p236
sS'file'
p237
S'stk500boot_v2_mega2560.hex'
p238
sS'path'
p239
S'stk500v2'
p240
sS'unlock_bits'
p241
S'0x3F'
p242
ssS'name'
p243
S'Arduino Mega 2560 or Mega ADK'
p244
sS'upload'
p245
(dp246
S'speed'
p247
S'115200'
p248
sS'maximum_size'
p249
S'258048'
p250
sS'protocol'
p251
S'wiring'
p252
ssaa(lp253
S'mega'
p254
a(dp255
S'build'
p256
(dp257
S'core'
p258
S'arduino'
p259
sS'mcu'
p260
S'atmega1280'
p261
sS'f_cpu'
p262
S'16000000L'
p263
sS'variant'
p264
S'mega'
p265
ssS'bootloader'
p266
(dp267
S'extended_fuses'
p268
S'0xF5'
p269
sS'high_fuses'
p270
S'0xDA'
p271
sS'low_fuses'
p272
S'0xFF'
p273
sS'lock_bits'
p274
S'0x0F'
p275
sS'file'
p276
S'ATmegaBOOT_168_atmega1280.hex'
p277
sS'path'
p278
S'atmega'
p279
sS'unlock_bits'
p280
S'0x3F'
p281
ssS'name'
p282
S'Arduino Mega (ATmega1280)'
p283
sS'upload'
p284
(dp285
S'speed'
p286
S'57600'
p287
sS'maximum_size'
p288
S'126976'
p289
sS'protocol'
p290
S'arduino'
p291
ssaa(lp292
S'leonardo'
p293
a(dp294
S'build'
p295
(dp296
S'core'
p297
S'arduino'
p298
sS'f_cpu'
p299
S'16000000L'
p300
sS'vid'
p301
S'0x2341'
p302
sS'pid'
p303
S'0x8036'
p304
sS'variant'
p305
S'leonardo'
p306
sS'mcu'
p307
S'atmega32u4'
p308
ssS'bootloader'
p309
(dp310
S'extended_fuses'
p311
S'0xcb'
p312
sS'high_fuses'
p313
S'0xd8'
p314
sS'low_fuses'
p315
S'0xff'
p316
sS'lock_bits'
p317
S'0x2F'
p318
sS'file'
p319
S'Caterina-Leonardo.hex'
p320
sS'path'
p321
S'caterina'
p322
sS'unlock_bits'
p323
S'0x3F'
p324
ssS'name'
p325
S'Arduino Leonardo'
p326
sS'upload'
p327
(dp328
S'speed'
p329
S'57600'
p330
sS'maximum_size'
p331
S'28672'
p332
sS'protocol'
p333
S'avr109'
p334
sS'disable_flushing'
p335
S'true'
p336
ssaa(lp337
S'esplora'
p338
a(dp339
S'build'
p340
(dp341
S'core'
p342
S'arduino'
p343
sS'f_cpu'
p344
S'16000000L'
p345
sS'vid'
p346
S'0x2341'
p347
sS'pid'
p348
S'0x803C'
p349
sS'variant'
p350
S'leonardo'
p351
sS'mcu'
p352
S'atmega32u4'
p353
ssS'bootloader'
p354
(dp355
S'extended_fuses'
p356
S'0xcb'
p357
sS'high_fuses'
p358
S'0xd8'
p359
sS'low_fuses'
p360
S'0xff'
p361
sS'lock_bits'
p362
S'0x2F'
p363
sS'file'
p364
S'Caterina-Esplora.hex'
p365
sS'path'
p366
S'caterina'
p367
sS'unlock_bits'
p368
S'0x3F'
p369
ssS'name'
p370
S'Arduino Esplora'
p371
sS'upload'
p372
(dp373
S'speed'
p374
S'57600'
p375
sS'maximum_size'
p376
S'28672'
p377
sS'protocol'
p378
S'avr109'
p379
sS'disable_flushing'
p380
S'true'
p381
ssaa(lp382
S'micro'
p383
a(dp384
S'build'
p385
(dp386
S'core'
p387
S'arduino'
p388
sS'f_cpu'
p389
S'16000000L'
p390
sS'vid'
p391
S'0x2341'
p392
sS'pid'
p393
S'0x8037'
p394
sS'variant'
p395
S'micro'
p396
sS'mcu'
p397
S'atmega32u4'
p398
ssS'bootloader'
p399
(dp400
S'extended_fuses'
p401
S'0xcb'
p402
sS'high_fuses'
p403
S'0xd8'
p404
sS'low_fuses'
p405
S'0xff'
p406
sS'lock_bits'
p407
S'0x2F'
p408
sS'file'
p409
S'Caterina-Micro.hex'
p410
sS'path'
p411
S'caterina'
p412
sS'unlock_bits'
p413
S'0x3F'
p414
ssS'name'
p415
S'Arduino Micro'
p416
sS'upload'
p417
(dp418
S'speed'
p419
S'57600'
p420
sS'maximum_size'
p421
S'28672'
p422
sS'protocol'
p423
S'avr109'
p424
sS'disable_flushing'
p425
S'true'
p426
ssaa(lp427
S'mini328'
p428
a(dp429
S'build'
p430
(dp431
S'core'
p432
S'arduino'
p433
sS'mcu'
p434
S'atmega328p'
p435
sS'f_cpu'
p436
S'16000000L'
p437
sS'variant'
p438
S'eightanaloginputs'
p439
ssS'bootloader'
p440
(dp441
S'extended_fuses'
p442
S'0x05'
p443
sS'high_fuses'
p444
S'0xd8'
p445
sS'low_fuses'
p446
S'0xff'
p447
sS'lock_bits'
p448
S'0x0F'
p449
sS'file'
p450
S'optiboot_atmega328-Mini.hex'
p451
sS'path'
p452
S'optiboot'
p453
sS'unlock_bits'
p454
S'0x3F'
p455
ssS'name'
p456
S'Arduino Mini w/ ATmega328'
p457
sS'upload'
p458
(dp459
S'speed'
p460
S'115200'
p461
sS'maximum_size'
p462
S'28672'
p463
sS'protocol'
p464
S'arduino'
p465
ssaa(lp466
S'mini'
p467
a(dp468
S'build'
p469
(dp470
S'core'
p471
S'arduino'
p472
sS'mcu'
p473
S'atmega168'
p474
sS'f_cpu'
p475
S'16000000L'
p476
sS'variant'
p477
S'eightanaloginputs'
p478
ssS'bootloader'
p479
(dp480
S'extended_fuses'
p481
S'0x00'
p482
sS'high_fuses'
p483
S'0xdd'
p484
sS'low_fuses'
p485
S'0xff'
p486
sS'lock_bits'
p487
S'0x0F'
p488
sS'file'
p489
S'ATmegaBOOT_168_ng.hex'
p490
sS'path'
p491
S'atmega'
p492
sS'unlock_bits'
p493
S'0x3F'
p494
ssS'name'
p495
S'Arduino Mini w/ ATmega168'
p496
sS'upload'
p497
(dp498
S'speed'
p499
S'19200'
p500
sS'maximum_size'
p501
S'14336'
p502
sS'protocol'
p503
S'arduino'
p504
ssaa(lp505
S'ethernet'
p506
a(dp507
S'build'
p508
(dp509
S'f_cpu'
p510
S'16000000L'
p511
sS'mcu'
p512
S'atmega328p'
p513
sS'variant'
p514
S'standard'
p515
sS'core'
p516
S'arduino'
p517
ssS'bootloader'
p518
(dp519
S'extended_fuses'
p520
S'0x05'
p521
sS'high_fuses'
p522
S'0xde'
p523
sS'low_fuses'
p524
S'0xff'
p525
sS'lock_bits'
p526
S'0x0F'
p527
sS'file'
p528
S'optiboot_atmega328.hex'
p529
sS'path'
p530
S'optiboot'
p531
sS'unlock_bits'
p532
S'0x3F'
p533
ssS'name'
p534
S'Arduino Ethernet'
p535
sS'upload'
p536
(dp537
S'speed'
p538
S'115200'
p539
sS'maximum_size'
p540
S'32256'
p541
sS'protocol'
p542
S'arduino'
p543
ssaa(lp544
S'fio'
p545
a(dp546
S'build'
p547
(dp548
S'core'
p549
S'arduino'
p550
sS'mcu'
p551
S'atmega328p'
p552
sS'f_cpu'
p553
S'8000000L'
p554
sS'variant'
p555
S'eightanaloginputs'
p556
ssS'bootloader'
p557
(dp558
S'extended_fuses'
p559
S'0x05'
p560
sS'high_fuses'
p561
S'0xDA'
p562
sS'low_fuses'
p563
S'0xFF'
p564
sS'lock_bits'
p565
S'0x0F'
p566
sS'file'
p567
S'ATmegaBOOT_168_atmega328_pro_8MHz.hex'
p568
sS'path'
p569
S'arduino:atmega'
p570
sS'unlock_bits'
p571
S'0x3F'
p572
ssS'name'
p573
S'Arduino Fio'
p574
sS'upload'
p575
(dp576
S'speed'
p577
S'57600'
p578
sS'maximum_size'
p579
S'30720'
p580
sS'protocol'
p581
S'arduino'
p582
ssaa(lp583
S'bt328'
p584
a(dp585
S'build'
p586
(dp587
S'core'
p588
S'arduino'
p589
sS'mcu'
p590
S'atmega328p'
p591
sS'f_cpu'
p592
S'16000000L'
p593
sS'variant'
p594
S'eightanaloginputs'
p595
ssS'bootloader'
p596
(dp597
S'extended_fuses'
p598
S'0x05'
p599
sS'high_fuses'
p600
S'0xd8'
p601
sS'low_fuses'
p602
S'0xff'
p603
sS'lock_bits'
p604
S'0x0F'
p605
sS'file'
p606
S'ATmegaBOOT_168_atmega328_bt.hex'
p607
sS'path'
p608
S'bt'
p609
sS'unlock_bits'
p610
S'0x3F'
p611
ssS'name'
p612
S'Arduino BT w/ ATmega328'
p613
sS'upload'
p614
(dp615
S'speed'
p616
S'19200'
p617
sS'maximum_size'
p618
S'28672'
p619
sS'protocol'
p620
S'arduino'
p621
sS'disable_flushing'
p622
S'true'
p623
ssaa(lp624
S'bt'
p625
a(dp626
S'build'
p627
(dp628
S'core'
p629
S'arduino'
p630
sS'mcu'
p631
S'atmega168'
p632
sS'f_cpu'
p633
S'16000000L'
p634
sS'variant'
p635
S'eightanaloginputs'
p636
ssS'bootloader'
p637
(dp638
S'extended_fuses'
p639
S'0x00'
p640
sS'high_fuses'
p641
S'0xdd'
p642
sS'low_fuses'
p643
S'0xff'
p644
sS'lock_bits'
p645
S'0x0F'
p646
sS'file'
p647
S'ATmegaBOOT_168.hex'
p648
sS'path'
p649
S'bt'
p650
sS'unlock_bits'
p651
S'0x3F'
p652
ssS'name'
p653
S'Arduino BT w/ ATmega168'
p654
sS'upload'
p655
(dp656
S'speed'
p657
S'19200'
p658
sS'maximum_size'
p659
S'14336'
p660
sS'protocol'
p661
S'arduino'
p662
sS'disable_flushing'
p663
S'true'
p664
ssaa(lp665
S'LilyPadUSB'
p666
a(dp667
S'build'
p668
(dp669
S'core'
p670
S'arduino'
p671
sS'f_cpu'
p672
S'8000000L'
p673
sS'vid'
p674
S'0x1B4F'
p675
sS'pid'
p676
S'0x9208'
p677
sS'variant'
p678
S'leonardo'
p679
sS'mcu'
p680
S'atmega32u4'
p681
ssS'bootloader'
p682
(dp683
S'extended_fuses'
p684
S'0xce'
p685
sS'high_fuses'
p686
S'0xd8'
p687
sS'low_fuses'
p688
S'0xff'
p689
sS'lock_bits'
p690
S'0x2F'
p691
sS'file'
p692
S'Caterina-LilyPadUSB.hex'
p693
sS'path'
p694
S'caterina-LilyPadUSB'
p695
sS'unlock_bits'
p696
S'0x3F'
p697
ssS'name'
p698
S'LilyPad Arduino USB'
p699
sS'upload'
p700
(dp701
S'speed'
p702
S'57600'
p703
sS'maximum_size'
p704
S'28672'
p705
sS'protocol'
p706
S'avr109'
p707
sS'disable_flushing'
p708
S'true'
p709
ssaa(lp710
S'lilypad328'
p711
a(dp712
S'build'
p713
(dp714
S'core'
p715
S'arduino'
p716
sS'mcu'
p717
S'atmega328p'
p718
sS'f_cpu'
p719
S'8000000L'
p720
sS'variant'
p721
S'standard'
p722
ssS'bootloader'
p723
(dp724
S'extended_fuses'
p725
S'0x05'
p726
sS'high_fuses'
p727
S'0xDA'
p728
sS'low_fuses'
p729
S'0xFF'
p730
sS'lock_bits'
p731
S'0x0F'
p732
sS'file'
p733
S'ATmegaBOOT_168_atmega328_pro_8MHz.hex'
p734
sS'path'
p735
S'atmega'
p736
sS'unlock_bits'
p737
S'0x3F'
p738
ssS'name'
p739
S'LilyPad Arduino w/ ATmega328'
p740
sS'upload'
p741
(dp742
S'speed'
p743
S'57600'
p744
sS'maximum_size'
p745
S'30720'
p746
sS'protocol'
p747
S'arduino'
p748
ssaa(lp749
S'lilypad'
p750
a(dp751
S'build'
p752
(dp753
S'core'
p754
S'arduino'
p755
sS'mcu'
p756
S'atmega168'
p757
sS'f_cpu'
p758
S'8000000L'
p759
sS'variant'
p760
S'standard'
p761
ssS'bootloader'
p762
(dp763
S'extended_fuses'
p764
S'0x00'
p765
sS'high_fuses'
p766
S'0xdd'
p767
sS'low_fuses'
p768
S'0xe2'
p769
sS'lock_bits'
p770
S'0x0F'
p771
sS'file'
p772
S'LilyPadBOOT_168.hex'
p773
sS'path'
p774
S'lilypad'
p775
sS'unlock_bits'
p776
S'0x3F'
p777
ssS'name'
p778
S'LilyPad Arduino w/ ATmega168'
p779
sS'upload'
p780
(dp781
S'speed'
p782
S'19200'
p783
sS'maximum_size'
p784
S'14336'
p785
sS'protocol'
p786
S'arduino'
p787
ssaa(lp788
S'pro5v328'
p789
a(dp790
S'build'
p791
(dp792
S'core'
p793
S'arduino'
p794
sS'mcu'
p795
S'atmega328p'
p796
sS'f_cpu'
p797
S'16000000L'
p798
sS'variant'
p799
S'standard'
p800
ssS'bootloader'
p801
(dp802
S'extended_fuses'
p803
S'0x05'
p804
sS'high_fuses'
p805
S'0xDA'
p806
sS'low_fuses'
p807
S'0xFF'
p808
sS'lock_bits'
p809
S'0x0F'
p810
sS'file'
p811
S'ATmegaBOOT_168_atmega328.hex'
p812
sS'path'
p813
S'atmega'
p814
sS'unlock_bits'
p815
S'0x3F'
p816
ssS'name'
p817
S'Arduino Pro or Pro Mini (5V, 16 MHz) w/ ATmega328'
p818
sS'upload'
p819
(dp820
S'speed'
p821
S'57600'
p822
sS'maximum_size'
p823
S'30720'
p824
sS'protocol'
p825
S'arduino'
p826
ssaa(lp827
S'pro5v'
p828
a(dp829
S'build'
p830
(dp831
S'core'
p832
S'arduino'
p833
sS'mcu'
p834
S'atmega168'
p835
sS'f_cpu'
p836
S'16000000L'
p837
sS'variant'
p838
S'standard'
p839
ssS'bootloader'
p840
(dp841
S'extended_fuses'
p842
S'0x00'
p843
sS'high_fuses'
p844
S'0xdd'
p845
sS'low_fuses'
p846
S'0xff'
p847
sS'lock_bits'
p848
S'0x0F'
p849
sS'file'
p850
S'ATmegaBOOT_168_diecimila.hex'
p851
sS'path'
p852
S'atmega'
p853
sS'unlock_bits'
p854
S'0x3F'
p855
ssS'name'
p856
S'Arduino Pro or Pro Mini (5V, 16 MHz) w/ ATmega168'
p857
sS'upload'
p858
(dp859
S'speed'
p860
S'19200'
p861
sS'maximum_size'
p862
S'14336'
p863
sS'protocol'
p864
S'arduino'
p865
ssaa(lp866
S'pro328'
p867
a(dp868
S'build'
p869
(dp870
S'core'
p871
S'arduino'
p872
sS'mcu'
p873
S'atmega328p'
p874
sS'f_cpu'
p875
S'8000000L'
p876
sS'variant'
p877
S'standard'
p878
ssS'bootloader'
p879
(dp880
S'extended_fuses'
p881
S'0x05'
p882
sS'high_fuses'
p883
S'0xDA'
p884
sS'low_fuses'
p885
S'0xFF'
p886
sS'lock_bits'
p887
S'0x0F'
p888
sS'file'
p889
S'ATmegaBOOT_168_atmega328_pro_8MHz.hex'
p890
sS'path'
p891
S'atmega'
p892
sS'unlock_bits'
p893
S'0x3F'
p894
ssS'name'
p895
S'Arduino Pro or Pro Mini (3.3V, 8 MHz) w/ ATmega328'
p896
sS'upload'
p897
(dp898
S'speed'
p899
S'57600'
p900
sS'maximum_size'
p901
S'30720'
p902
sS'protocol'
p903
S'arduino'
p904
ssaa(lp905
S'pro'
p906
a(dp907
S'build'
p908
(dp909
S'core'
p910
S'arduino'
p911
sS'mcu'
p912
S'atmega168'
p913
sS'f_cpu'
p914
S'8000000L'
p915
sS'variant'
p916
S'standard'
p917
ssS'bootloader'
p918
(dp919
S'extended_fuses'
p920
S'0x00'
p921
sS'high_fuses'
p922
S'0xdd'
p923
sS'low_fuses'
p924
S'0xc6'
p925
sS'lock_bits'
p926
S'0x0F'
p927
sS'file'
p928
S'ATmegaBOOT_168_pro_8MHz.hex'
p929
sS'path'
p930
S'atmega'
p931
sS'unlock_bits'
p932
S'0x3F'
p933
ssS'name'
p934
S'Arduino Pro or Pro Mini (3.3V, 8 MHz) w/ ATmega168'
p935
sS'upload'
p936
(dp937
S'speed'
p938
S'19200'
p939
sS'maximum_size'
p940
S'14336'
p941
sS'protocol'
p942
S'arduino'
p943
ssaa(lp944
S'atmega168'
p945
a(dp946
S'build'
p947
(dp948
S'core'
p949
S'arduino'
p950
sS'mcu'
p951
S'atmega168'
p952
sS'f_cpu'
p953
S'16000000L'
p954
sS'variant'
p955
S'standard'
p956
ssS'bootloader'
p957
(dp958
S'extended_fuses'
p959
S'0x00'
p960
sS'high_fuses'
p961
S'0xdd'
p962
sS'low_fuses'
p963
S'0xff'
p964
sS'lock_bits'
p965
S'0x0F'
p966
sS'file'
p967
S'ATmegaBOOT_168_ng.hex'
p968
sS'path'
p969
S'atmega'
p970
sS'unlock_bits'
p971
S'0x3F'
p972
ssS'name'
p973
S'Arduino NG or older w/ ATmega168'
p974
sS'upload'
p975
(dp976
S'speed'
p977
S'19200'
p978
sS'maximum_size'
p979
S'14336'
p980
sS'protocol'
p981
S'arduino'
p982
ssaa(lp983
S'atmega8'
p984
a(dp985
S'build'
p986
(dp987
S'core'
p988
S'arduino'
p989
sS'mcu'
p990
S'atmega8'
p991
sS'f_cpu'
p992
S'16000000L'
p993
sS'variant'
p994
S'standard'
p995
ssS'bootloader'
p996
(dp997
S'high_fuses'
p998
S'0xca'
p999
sS'low_fuses'
p1000
S'0xdf'
p1001
sS'lock_bits'
p1002
S'0x0F'
p1003
sS'file'
p1004
S'ATmegaBOOT-prod-firmware-2009-11-07.hex'
p1005
sS'path'
p1006
S'atmega8'
p1007
sS'unlock_bits'
p1008
S'0x3F'
p1009
ssS'name'
p1010
S'Arduino NG or older w/ ATmega8'
p1011
sS'upload'
p1012
(dp1013
S'speed'
p1014
S'19200'
p1015
sS'maximum_size'
p1016
S'7168'
p1017
sS'protocol'
p1018
S'arduino'
p1019
ssaa(lp1020
S'robotControl'
p1021
a(dp1022
S'build'
p1023
(dp1024
S'core'
p1025
S'robot'
p1026
sS'f_cpu'
p1027
S'16000000L'
p1028
sS'vid'
p1029
S'0x2341'
p1030
sS'pid'
p1031
S'0x8038'
p1032
sS'variant'
p1033
S'robot_control'
p1034
sS'mcu'
p1035
S'atmega32u4'
p1036
ssS'bootloader'
p1037
(dp1038
S'extended_fuses'
p1039
S'0xcb'
p1040
sS'high_fuses'
p1041
S'0xd8'
p1042
sS'low_fuses'
p1043
S'0xff'
p1044
sS'lock_bits'
p1045
S'0x2F'
p1046
sS'file'
p1047
S'Caterina-Robot-Control.hex'
p1048
sS'path'
p1049
S'caterina-Arduino_Robot'
p1050
sS'unlock_bits'
p1051
S'0x3F'
p1052
ssS'name'
p1053
S'Arduino Robot Control'
p1054
sS'upload'
p1055
(dp1056
S'speed'
p1057
S'57600'
p1058
sS'maximum_size'
p1059
S'28672'
p1060
sS'protocol'
p1061
S'avr109'
p1062
sS'disable_flushing'
p1063
S'true'
p1064
ssaa(lp1065
S'robotMotor'
p1066
a(dp1067
S'build'
p1068
(dp1069
S'core'
p1070
S'robot'
p1071
sS'f_cpu'
p1072
S'16000000L'
p1073
sS'vid'
p1074
S'0x2341'
p1075
sS'pid'
p1076
S'0x8039'
p1077
sS'variant'
p1078
S'robot_motor'
p1079
sS'mcu'
p1080
S'atmega32u4'
p1081
ssS'bootloader'
p1082
(dp1083
S'extended_fuses'
p1084
S'0xcb'
p1085
sS'high_fuses'
p1086
S'0xd8'
p1087
sS'low_fuses'
p1088
S'0xff'
p1089
sS'lock_bits'
p1090
S'0x2F'
p1091
sS'file'
p1092
S'Caterina-Robot-Motor.hex'
p1093
sS'path'
p1094
S'caterina-Arduino_Robot'
p1095
sS'unlock_bits'
p1096
S'0x3F'
p1097
ssS'name'
p1098
S'Arduino Robot Motor'
p1099
sS'upload'
p1100
(dp1101
S'speed'
p1102
S'57600'
p1103
sS'maximum_size'
p1104
S'28672'
p1105
sS'protocol'
p1106
S'avr109'
p1107
sS'disable_flushing'
p1108
S'true'
p1109
ssaatp1110
Rp1111
(dp1112
S'default'
p1113
S'uno'
p1114
sbtp1115
a.